; Function Attrs: mustprogress uwtable
define void @_ZN32pxrInternal_v0_24__pxrReserved__33UsdImagingDataSourcePrim_ModelAPIC2ERKNS_11UsdModelAPIE(ptr noundef nonnull align 8 dereferenceable(40) initializes((0, 8)) %0, ptr noundef nonnull align 8 dereferenceable(32) %1) unnamed_addr #0 align 2 personality ptr @__gxx_personality_v0 {
  store ptr getelementptr inbounds nuw inrange(-16, 32) (i8, ptr @_ZTVN32pxrInternal_v0_24__pxrReserved__33UsdImagingDataSourcePrim_ModelAPIE, i64 16), ptr %0, align 8
  %3 = getelementptr inbounds nuw i8, ptr %0, i64 8
  invoke void @_ZN32pxrInternal_v0_24__pxrReserved__13UsdSchemaBaseC2ERKS0_(ptr noundef nonnull align 8 dereferenceable(32) %3, ptr noundef nonnull align 8 dereferenceable(32) %1)
          to label %.noexc unwind label %19

.noexc:                                           ; preds = %2
  store ptr getelementptr inbounds nuw inrange(-16, 48) (i8, ptr @_ZTVN32pxrInternal_v0_24__pxrReserved__16UsdAPISchemaBaseE, i64 16), ptr %3, align 8
  %4 = getelementptr inbounds nuw i8, ptr %0, i64 32
  %5 = getelementptr inbounds nuw i8, ptr %1, i64 24
  %6 = load i64, ptr %5, align 8
  store i64 %6, ptr %4, align 8
  %7 = and i64 %6, 7
  %.not.i.i.i.i = icmp eq i64 %7, 0
  br i1 %.not.i.i.i.i, label %18, label %8

8:                                                ; preds = %.noexc
  %9 = and i64 %6, -8
  %10 = inttoptr i64 %9 to ptr
  %11 = atomicrmw add ptr %10, i32 2 monotonic, align 4
  %12 = and i32 %11, 1
  %.not1.i.i.i.i = icmp eq i32 %12, 0
  br i1 %.not1.i.i.i.i, label %13, label %18

13:                                               ; preds = %8
  %14 = load ptr, ptr %4, align 8
  %15 = ptrtoint ptr %14 to i64
  %16 = and i64 %15, -8
  %17 = inttoptr i64 %16 to ptr
  store ptr %17, ptr %4, align 8
  br label %18

18:                                               ; preds = %13, %8, %.noexc
  store ptr getelementptr inbounds nuw inrange(-16, 48) (i8, ptr @_ZTVN32pxrInternal_v0_24__pxrReserved__11UsdModelAPIE, i64 16), ptr %3, align 8
  ret void

19:                                               ; preds = %2
  %20 = landingpad { ptr, i32 }
          cleanup
  tail call void @_ZN32pxrInternal_v0_24__pxrReserved__16HdDataSourceBaseD2Ev(ptr noundef nonnull align 8 dereferenceable(8) %0) #23
  resume { ptr, i32 } %20
}